EXPORTS 
	??_R0?AUShimMidiSink@@@8 	 DATA
	??_R0?AVMidiSink@imuse@@@8 	 DATA
	??_R0?AVbad_alloc@std@@@8 	 DATA
	??_R0?AVbad_array_new_length@std@@@8 	 DATA
	??_R0?AVexception@std@@@8 	 DATA
	?_OptionsStorage@?1??__local_stdio_printf_options@@9@4_KA 	 DATA
	_Avx2WmemEnabledWeakValue 	 DATA
	??$_Allocate_at_least_helper@V?$allocator@E@std@@@std@@YAPAEAAV?$allocator@E@0@AAI@Z
	??$_Allocate_for_capacity@$0A@@?$basic_string@DU?$char_traits@D@std@@V?$allocator@D@2@@std@@CAPADAAV?$allocator@D@1@AAI@Z
	??$_Allocate_manually_vector_aligned@U_Default_allocate_traits@std@@@std@@YAPAXI@Z
	??$_Construct@$00PBD@?$basic_string@DU?$char_traits@D@std@@V?$allocator@D@2@@std@@AAEXQBDI@Z
	??$_Copy_backward_memmove@PAEPAE@std@@YAPAEPAE00@Z
	??$_Copy_memmove@PAEPAE@std@@YAPAEPAE00@Z
	??$_Copy_memmove_n@PBEPAE@std@@YAPAEPBEIPAE@Z
	??$_Copy_memmove_tail@PAE@std@@YAPAEQBDQAEII@Z
	??$_Erase_tree@V?$allocator@U?$_Tree_node@U?$pair@$$CBGUActiveSound@ImuseEngine@imuse@@@std@@PAX@std@@@std@@@?$_Tree_val@U?$_Tree_simple_types@U?$pair@$$CBGUActiveSound@ImuseEngine@imuse@@@std@@@std@@@std@@QAEXAAV?$allocator@U?$_Tree_node@U?$pair@$$CBGUActiveSound@ImuseEngine@imuse@@@std@@PAX@std@@@1@PAU?$_Tree_node@U?$pair@$$CBGUActiveSound@ImuseEngine@imuse@@@std@@PAX@1@@Z
	??$_Erase_tree@V?$allocator@U?$_Tree_node@U?$pair@$$CBGUDirectoryEntry@imuse@@@std@@PAX@std@@@std@@@?$_Tree_val@U?$_Tree_simple_types@U?$pair@$$CBGUDirectoryEntry@imuse@@@std@@@std@@@std@@QAEXAAV?$allocator@U?$_Tree_node@U?$pair@$$CBGUDirectoryEntry@imuse@@@std@@PAX@std@@@1@PAU?$_Tree_node@U?$pair@$$CBGUDirectoryEntry@imuse@@@std@@PAX@1@@Z
	??$_Insert_counted_range@PBE@?$vector@EV?$allocator@E@std@@@std@@AAEXV?$_Vector_const_iterator@V?$_Vector_val@U?$_Simple_types@E@std@@@std@@@1@PBEI@Z
	??0ImuseEngine@imuse@@QAE@PBVResourceBank@1@@Z
	??0bad_alloc@std@@QAE@ABV01@@Z
	??0bad_array_new_length@std@@QAE@ABV01@@Z
	??0bad_array_new_length@std@@QAE@XZ
	??0exception@std@@QAE@ABV01@@Z
	??1?$_Tree@V?$_Tmap_traits@GUDirectoryEntry@imuse@@U?$less@G@std@@V?$allocator@U?$pair@$$CBGUDirectoryEntry@imuse@@@std@@@4@$0A@@std@@@std@@QAE@XZ
	??1?$basic_string@DU?$char_traits@D@std@@V?$allocator@D@2@@std@@QAE@XZ
	??1?$deque@UQueuedTrigger@ImuseEngine@imuse@@V?$allocator@UQueuedTrigger@ImuseEngine@imuse@@@std@@@std@@QAE@XZ
	??1?$function@$$A6AXABV?$basic_string@DU?$char_traits@D@std@@V?$allocator@D@2@@std@@@Z@std@@QAE@XZ
	??1?$function@$$A6AXGE@Z@std@@QAE@XZ
	??1?$map@GUActiveSound@ImuseEngine@imuse@@U?$less@G@std@@V?$allocator@U?$pair@$$CBGUActiveSound@ImuseEngine@imuse@@@std@@@5@@std@@QAE@XZ
	??1?$vector@EV?$allocator@E@std@@@std@@QAE@XZ
	??1?$vector@PAUPartState@ImuseEngine@imuse@@V?$allocator@PAUPartState@ImuseEngine@imuse@@@std@@@std@@QAE@XZ
	??1?$vector@UDeferredCommand@ImuseEngine@imuse@@V?$allocator@UDeferredCommand@ImuseEngine@imuse@@@std@@@std@@QAE@XZ
	??1?$vector@UImuseControlEvent@imuse@@V?$allocator@UImuseControlEvent@imuse@@@std@@@std@@QAE@XZ
	??1?$vector@UScriptTrigger@ImuseEngine@imuse@@V?$allocator@UScriptTrigger@ImuseEngine@imuse@@@std@@@std@@QAE@XZ
	??1?$vector@USmfTrack@imuse@@V?$allocator@USmfTrack@imuse@@@std@@@std@@QAE@XZ
	??1ImuseEngine@imuse@@QAE@XZ
	??1MidiSink@imuse@@UAE@XZ
	??1PartState@ImuseEngine@imuse@@QAE@XZ
	??1SoundResource@imuse@@QAE@XZ
	??1_Reallocation_guard@?$vector@EV?$allocator@E@std@@@std@@QAE@XZ
	??1bad_array_new_length@std@@UAE@XZ
	??1exception@std@@UAE@XZ
	??_7MidiSink@imuse@@6B@
	??_7ShimMidiSink@@6B@
	??_7bad_alloc@std@@6B@
	??_7bad_array_new_length@std@@6B@
	??_7exception@std@@6B@
	?_Change_array@?$vector@EV?$allocator@E@std@@@std@@AAEXQAEII@Z
	?_Throw_bad_array_new_length@std@@YAXXZ
	?_Tidy@?$deque@UQueuedTrigger@ImuseEngine@imuse@@V?$allocator@UQueuedTrigger@ImuseEngine@imuse@@@std@@@std@@AAEXXZ
	?_Tidy@?$vector@GV?$allocator@G@std@@@std@@AAEXXZ
	?_Xlen_string@std@@YAXXZ
	?_Xlength@?$vector@EV?$allocator@E@std@@@std@@CAXXZ
	?assign@?$basic_string@DU?$char_traits@D@std@@V?$allocator@D@2@@std@@QAEAAV12@QBDI@Z
	?onAllNotesOff@MidiSink@imuse@@UAEXXZ
	?onAllNotesOff@ShimMidiSink@@UAEXXZ
	?onCustomInstrument@MidiSink@imuse@@UAEXGEIVByteView@2@@Z
	?onCustomInstrument@ShimMidiSink@@UAEXGEIVByteView@imuse@@@Z
	?onMidiMessage@ShimMidiSink@@UAEXGEE_NE@Z
	?onSysEx@MidiSink@imuse@@UAEXGVByteView@2@@Z
	?onSysEx@ShimMidiSink@@UAEXGVByteView@imuse@@@Z
	?onTempoChange@MidiSink@imuse@@UAEXGI@Z
	?push_back@?$vector@EV?$allocator@E@std@@@std@@QAEX$$QAE@Z
	?reserve@?$vector@EV?$allocator@E@std@@@std@@QAEXI@Z
	?what@exception@std@@UBEPBDXZ
	__local_stdio_printf_options
	imuse_bank_create
	imuse_bank_destroy
	imuse_bank_event_count
	imuse_bank_event_summary
	imuse_bank_load
	imuse_bank_sound_count
	imuse_bank_sound_id_at
	imuse_bank_sound_name
	imuse_bank_track_count
	imuse_bank_track_summary
	imuse_clear_roland_timbre_mappings
	imuse_engine_active_sound_count
	imuse_engine_active_sound_id_at
	imuse_engine_advance
	imuse_engine_create
	imuse_engine_destroy
	imuse_engine_disable_adlib
	imuse_engine_disable_fluidsynth
	imuse_engine_disable_mt32
	imuse_engine_enable_adlib
	imuse_engine_enable_fluidsynth
	imuse_engine_enable_mt32
	imuse_engine_get_location
	imuse_engine_get_sound_status
	imuse_engine_render_adlib
	imuse_engine_render_fluidsynth
	imuse_engine_render_mt32
	imuse_engine_set_callbacks
	imuse_engine_set_hook
	imuse_engine_set_native_mt32_output
	imuse_engine_set_profile
	imuse_engine_start_sound
	imuse_engine_stop_all
	imuse_engine_stop_sound
	imuse_engine_ticks_per_second
	imuse_register_roland_timbre_mapping
	snprintf
